; Function Attrs: mustprogress uwtable
define hidden void @_Z19fourPointsTransformRKN2cv3MatEPKNS_6Point_IfEERS0_(ptr noundef nonnull align 8 dereferenceable(96) %0, ptr noundef %1, ptr noundef nonnull align 8 dereferenceable(96) %2) local_unnamed_addr #8 personality ptr @__gxx_personality_v0 {
  %4 = alloca [4 x %"class.cv::Point_.27"], align 16
  %5 = alloca %"class.cv::Mat", align 8
  %6 = alloca %"class.cv::_InputArray", align 8
  %7 = alloca %"class.cv::_OutputArray", align 8
  %8 = alloca %"class.cv::_InputArray", align 8
  %9 = alloca %"class.cv::Scalar_", align 8
  call void @llvm.lifetime.start.p0(i64 32, ptr nonnull %4) #23
  store <2 x float> <float 0.000000e+00, float 3.100000e+01>, ptr %4, align 16
  %10 = getelementptr inbounds nuw i8, ptr %4, i64 8
  store <2 x float> zeroinitializer, ptr %10, align 8
  %11 = getelementptr inbounds nuw i8, ptr %4, i64 16
  store <2 x float> <float 9.900000e+01, float 0.000000e+00>, ptr %11, align 16
  %12 = getelementptr inbounds nuw i8, ptr %4, i64 24
  store <2 x float> <float 9.900000e+01, float 3.100000e+01>, ptr %12, align 8
  call void @llvm.lifetime.start.p0(i64 96, ptr nonnull %5) #23
  call void @_ZN2cv23getPerspectiveTransformEPKNS_6Point_IfEES3_i(ptr dead_on_unwind nonnull writable sret(%"class.cv::Mat") align 8 %5, ptr noundef %1, ptr noundef nonnull %4, i32 noundef 0)
  call void @llvm.lifetime.start.p0(i64 24, ptr nonnull %6) #23
  %13 = getelementptr inbounds nuw i8, ptr %6, i64 16
  store i32 0, ptr %13, align 8, !tbaa !61
  %14 = getelementptr inbounds nuw i8, ptr %6, i64 20
  store i32 0, ptr %14, align 4, !tbaa !63
  store i32 16842752, ptr %6, align 8, !tbaa !72
  %15 = getelementptr inbounds nuw i8, ptr %6, i64 8
  store ptr %0, ptr %15, align 8, !tbaa !74
  call void @llvm.lifetime.start.p0(i64 24, ptr nonnull %7) #23
  %16 = getelementptr inbounds nuw i8, ptr %7, i64 8
  %17 = getelementptr inbounds nuw i8, ptr %7, i64 16
  store i64 0, ptr %17, align 8
  store i32 33619968, ptr %7, align 8, !tbaa !72
  store ptr %2, ptr %16, align 8, !tbaa !74
  call void @llvm.lifetime.start.p0(i64 24, ptr nonnull %8) #23
  %18 = getelementptr inbounds nuw i8, ptr %8, i64 16
  store i32 0, ptr %18, align 8, !tbaa !61
  %19 = getelementptr inbounds nuw i8, ptr %8, i64 20
  store i32 0, ptr %19, align 4, !tbaa !63
  store i32 16842752, ptr %8, align 8, !tbaa !72
  %20 = getelementptr inbounds nuw i8, ptr %8, i64 8
  store ptr %5, ptr %20, align 8, !tbaa !74
  call void @llvm.lifetime.start.p0(i64 32, ptr nonnull %9) #23
  call void @llvm.memset.p0.i64(ptr noundef nonnull align 8 dereferenceable(32) %9, i8 0, i64 32, i1 false)
  invoke void @_ZN2cv15warpPerspectiveERKNS_11_InputArrayERKNS_12_OutputArrayES2_NS_5Size_IiEEiiRKNS_7Scalar_IdEE(ptr noundef nonnull align 8 dereferenceable(24) %6, ptr noundef nonnull align 8 dereferenceable(24) %7, ptr noundef nonnull align 8 dereferenceable(24) %8, i64 137438953572, i32 noundef 1, i32 noundef 0, ptr noundef nonnull align 8 dereferenceable(32) %9)
          to label %21 unwind label %22

21:                                               ; preds = %3
  call void @llvm.lifetime.end.p0(i64 32, ptr nonnull %9) #23
  call void @llvm.lifetime.end.p0(i64 24, ptr nonnull %8) #23
  call void @llvm.lifetime.end.p0(i64 24, ptr nonnull %7) #23
  call void @llvm.lifetime.end.p0(i64 24, ptr nonnull %6) #23
  call void @_ZN2cv3MatD1Ev(ptr noundef nonnull align 8 dereferenceable(96) %5) #23
  call void @llvm.lifetime.end.p0(i64 96, ptr nonnull %5) #23
  call void @llvm.lifetime.end.p0(i64 32, ptr nonnull %4) #23
  ret void

22:                                               ; preds = %3
  %23 = landingpad { ptr, i32 }
          cleanup
  call void @llvm.lifetime.end.p0(i64 32, ptr nonnull %9) #23
  call void @llvm.lifetime.end.p0(i64 24, ptr nonnull %8) #23
  call void @llvm.lifetime.end.p0(i64 24, ptr nonnull %7) #23
  call void @llvm.lifetime.end.p0(i64 24, ptr nonnull %6) #23
  call void @_ZN2cv3MatD1Ev(ptr noundef nonnull align 8 dereferenceable(96) %5) #23
  call void @llvm.lifetime.end.p0(i64 96, ptr nonnull %5) #23
  call void @llvm.lifetime.end.p0(i64 32, ptr nonnull %4) #23
  resume { ptr, i32 } %23
}